; Function Attrs: inlinehint nofree nounwind memory(read, inaccessiblemem: none) uwtable
define internal fastcc zeroext i1 @pmix_cmd_line_is_taken(ptr noundef readonly captures(none) %0) unnamed_addr #7 {
  %.01.i = load ptr, ptr getelementptr inbounds nuw (i8, ptr @prte_info_cmd_line, i64 360), align 8, !tbaa !49
  %.not2.i = icmp eq ptr %.01.i, getelementptr inbounds nuw (i8, ptr @prte_info_cmd_line, i64 240)
  br i1 %.not2.i, label %pmix_cmd_line_get_param.exit, label %.lr.ph.i

.lr.ph.i:                                         ; preds = %1, %6
  %.03.i = phi ptr [ %.0.i, %6 ], [ %.01.i, %1 ]
  %2 = getelementptr inbounds nuw i8, ptr %.03.i, i64 144
  %3 = load ptr, ptr %2, align 8, !tbaa !50
  %4 = tail call i32 @strcmp(ptr noundef nonnull dereferenceable(1) %3, ptr noundef nonnull readonly dereferenceable(1) %0) #11
  %5 = icmp eq i32 %4, 0
  br i1 %5, label %pmix_cmd_line_get_param.exit.loopexit, label %6

6:                                                ; preds = %.lr.ph.i
  %7 = getelementptr inbounds nuw i8, ptr %.03.i, i64 120
  %.0.i = load ptr, ptr %7, align 8, !tbaa !49
  %.not.i = icmp eq ptr %.0.i, getelementptr inbounds nuw (i8, ptr @prte_info_cmd_line, i64 240)
  br i1 %.not.i, label %pmix_cmd_line_get_param.exit.loopexit, label %.lr.ph.i, !llvm.loop !52

pmix_cmd_line_get_param.exit.loopexit:            ; preds = %6, %.lr.ph.i
  %.08.i.ph = phi ptr [ null, %6 ], [ %.03.i, %.lr.ph.i ]
  %8 = icmp ne ptr %.08.i.ph, null
  br label %pmix_cmd_line_get_param.exit

pmix_cmd_line_get_param.exit:                     ; preds = %pmix_cmd_line_get_param.exit.loopexit, %1
  %.08.i = phi i1 [ false, %1 ], [ %8, %pmix_cmd_line_get_param.exit.loopexit ]
  ret i1 %.08.i
}